target datalayout = "e-m:e-p270:32:32-p271:32:32-p272:64:64-i64:64-i128:128-f80:128-n8:16:32:64-S128"
target triple = "x86_64-pc-linux-gnu"

%struct._c_node_name = type { ptr, ptr, i64, i32 }

@hf_node_id = internal global i32 0, align 4
@hf_node_type = internal global i32 0, align 4
@ett_entityname = internal global i32 0, align 4
@.str.1602 = private unnamed_addr constant [5 x i8] c": %s\00", align 1
@.str.1614 = private unnamed_addr constant [6 x i8] c"%s%lu\00", align 1
@.str.1615 = private unnamed_addr constant [17 x i8] c"Unknown (0x%02x)\00", align 1

; Function Attrs: null_pointer_is_valid sspstrong uwtable
define internal ptr @c_node_type_abbr_string(i32 noundef %0) #0 {
  %2 = alloca i32, align 4
  store i32 %0, ptr %2, align 4
  %3 = load i32, ptr %2, align 4
  %4 = call ptr @val_to_str(i32 noundef %3, ptr noundef @c_node_type_abbr_strings, ptr noundef @.str.1615)
  ret ptr %4
}

; Function Attrs: null_pointer_is_valid sspstrong uwtable
define internal i32 @c_dissect_entityname(ptr noundef %0, i32 noundef %1, ptr noundef %2, ptr noundef %3, i32 noundef %4, ptr noundef %5) #0 {
  %7 = alloca ptr, align 8
  %8 = alloca i32, align 4
  %9 = alloca ptr, align 8
  %10 = alloca ptr, align 8
  %11 = alloca i32, align 4
  %12 = alloca ptr, align 8
  %13 = alloca ptr, align 8
  %14 = alloca ptr, align 8
  %15 = alloca %struct._c_node_name, align 8
  store ptr %0, ptr %7, align 8
  store i32 %1, ptr %8, align 4
  store ptr %2, ptr %9, align 8
  store ptr %3, ptr %10, align 8
  store i32 %4, ptr %11, align 4
  store ptr %5, ptr %12, align 8
  call void @llvm.lifetime.start.p0(i64 8, ptr %13) #14
  call void @llvm.lifetime.start.p0(i64 8, ptr %14) #14
  call void @llvm.lifetime.start.p0(i64 32, ptr %15) #14
  %16 = load ptr, ptr %7, align 8
  %17 = load i32, ptr %8, align 4
  %18 = load ptr, ptr %10, align 8
  %19 = load i32, ptr %11, align 4
  %20 = call ptr @proto_tree_add_item(ptr noundef %16, i32 noundef %17, ptr noundef %18, i32 noundef %19, i32 noundef 9, i32 noundef 0)
  store ptr %20, ptr %13, align 8
  %21 = load ptr, ptr %13, align 8
  %22 = load i32, ptr @ett_entityname, align 4
  %23 = call ptr @proto_item_add_subtree(ptr noundef %21, i32 noundef %22)
  store ptr %23, ptr %14, align 8
  %24 = load ptr, ptr %10, align 8
  %25 = load i32, ptr %11, align 4
  %26 = call zeroext i8 @tvb_get_uint8(ptr noundef %24, i32 noundef %25)
  %27 = zext i8 %26 to i32
  %28 = getelementptr inbounds nuw %struct._c_node_name, ptr %15, i32 0, i32 3
  store i32 %27, ptr %28, align 8
  %29 = getelementptr inbounds nuw %struct._c_node_name, ptr %15, i32 0, i32 3
  %30 = load i32, ptr %29, align 8
  %31 = call ptr @c_node_type_abbr_string(i32 noundef %30)
  %32 = getelementptr inbounds nuw %struct._c_node_name, ptr %15, i32 0, i32 1
  store ptr %31, ptr %32, align 8
  %33 = load ptr, ptr %14, align 8
  %34 = load i32, ptr @hf_node_type, align 4
  %35 = load ptr, ptr %10, align 8
  %36 = load i32, ptr %11, align 4
  %37 = call ptr @proto_tree_add_item(ptr noundef %33, i32 noundef %34, ptr noundef %35, i32 noundef %36, i32 noundef 1, i32 noundef -2147483648)
  %38 = load i32, ptr %11, align 4
  %39 = add i32 %38, 1
  store i32 %39, ptr %11, align 4
  %40 = load ptr, ptr %10, align 8
  %41 = load i32, ptr %11, align 4
  %42 = call i64 @tvb_get_letoh64(ptr noundef %40, i32 noundef %41)
  %43 = getelementptr inbounds nuw %struct._c_node_name, ptr %15, i32 0, i32 2
  store i64 %42, ptr %43, align 8
  %44 = load ptr, ptr %14, align 8
  %45 = load i32, ptr @hf_node_id, align 4
  %46 = load ptr, ptr %10, align 8
  %47 = load i32, ptr %11, align 4
  %48 = call ptr @proto_tree_add_item(ptr noundef %44, i32 noundef %45, ptr noundef %46, i32 noundef %47, i32 noundef 8, i32 noundef -2147483648)
  %49 = load i32, ptr %11, align 4
  %50 = add i32 %49, 8
  store i32 %50, ptr %11, align 4
  %51 = getelementptr inbounds nuw %struct._c_node_name, ptr %15, i32 0, i32 2
  %52 = load i64, ptr %51, align 8
  %53 = icmp eq i64 %52, -1
  br i1 %53, label %54, label %58

54:                                               ; preds = %6
  %55 = getelementptr inbounds nuw %struct._c_node_name, ptr %15, i32 0, i32 1
  %56 = load ptr, ptr %55, align 8
  %57 = getelementptr inbounds nuw %struct._c_node_name, ptr %15, i32 0, i32 0
  store ptr %56, ptr %57, align 8
  br label %66

58:                                               ; preds = %6
  %59 = call ptr @wmem_packet_scope()
  %60 = getelementptr inbounds nuw %struct._c_node_name, ptr %15, i32 0, i32 1
  %61 = load ptr, ptr %60, align 8
  %62 = getelementptr inbounds nuw %struct._c_node_name, ptr %15, i32 0, i32 2
  %63 = load i64, ptr %62, align 8
  %64 = call noalias ptr (ptr, ptr, ...) @wmem_strdup_printf(ptr noundef %59, ptr noundef @.str.1614, ptr noundef %61, i64 noundef %63)
  %65 = getelementptr inbounds nuw %struct._c_node_name, ptr %15, i32 0, i32 0
  store ptr %64, ptr %65, align 8
  br label %66

66:                                               ; preds = %58, %54
  %67 = load ptr, ptr %13, align 8
  %68 = getelementptr inbounds nuw %struct._c_node_name, ptr %15, i32 0, i32 0
  %69 = load ptr, ptr %68, align 8
  call void (ptr, ptr, ...) @proto_item_append_text(ptr noundef %67, ptr noundef @.str.1602, ptr noundef %69)
  %70 = load ptr, ptr %9, align 8
  %71 = icmp ne ptr %70, null
  br i1 %71, label %72, label %74

72:                                               ; preds = %66
  %73 = load ptr, ptr %9, align 8
  call void @llvm.memcpy.p0.p0.i64(ptr align 8 %73, ptr align 8 %15, i64 32, i1 false)
  br label %74

74:                                               ; preds = %72, %66
  %75 = load i32, ptr %11, align 4
  call void @llvm.lifetime.end.p0(i64 32, ptr %15) #14
  call void @llvm.lifetime.end.p0(i64 8, ptr %14) #14
  call void @llvm.lifetime.end.p0(i64 8, ptr %13) #14
  ret i32 %75
}