; Function Attrs: null_pointer_is_valid sspstrong uwtable
define internal fastcc noundef i32 @c_dissect_entityname(ptr noundef %0, i32 noundef %1, ptr noundef writeonly captures(address_is_null) %2, ptr noundef %3, i32 noundef %4) unnamed_addr #0 {
  %6 = tail call ptr @proto_tree_add_item(ptr noundef %0, i32 noundef %1, ptr noundef %3, i32 noundef %4, i32 noundef 9, i32 noundef 0)
  %7 = load i32, ptr @ett_entityname, align 4
  %8 = tail call ptr @proto_item_add_subtree(ptr noundef %6, i32 noundef %7)
  %9 = tail call zeroext i8 @tvb_get_uint8(ptr noundef %3, i32 noundef %4)
  %10 = zext i8 %9 to i32
  %11 = tail call ptr @val_to_str(i32 noundef %10, ptr noundef nonnull @c_node_type_abbr_strings, ptr noundef nonnull @.str.1615)
  %12 = load i32, ptr @hf_node_type, align 4
  %13 = tail call ptr @proto_tree_add_item(ptr noundef %8, i32 noundef %12, ptr noundef %3, i32 noundef %4, i32 noundef 1, i32 noundef -2147483648)
  %14 = add i32 %4, 1
  %15 = tail call i64 @tvb_get_letoh64(ptr noundef %3, i32 noundef %14)
  %16 = load i32, ptr @hf_node_id, align 4
  %17 = tail call ptr @proto_tree_add_item(ptr noundef %8, i32 noundef %16, ptr noundef %3, i32 noundef %14, i32 noundef 8, i32 noundef -2147483648)
  %18 = icmp eq i64 %15, -1
  br i1 %18, label %22, label %19

19:                                               ; preds = %5
  %20 = tail call ptr @wmem_packet_scope()
  %21 = tail call noalias ptr (ptr, ptr, ...) @wmem_strdup_printf(ptr noundef %20, ptr noundef nonnull @.str.1614, ptr noundef %11, i64 noundef %15)
  br label %22

22:                                               ; preds = %5, %19
  %.sroa.0.0 = phi ptr [ %21, %19 ], [ %11, %5 ]
  tail call void (ptr, ptr, ...) @proto_item_append_text(ptr noundef %6, ptr noundef nonnull @.str.1602, ptr noundef %.sroa.0.0)
  %.not = icmp eq ptr %2, null
  br i1 %.not, label %24, label %23

23:                                               ; preds = %22
  store ptr %.sroa.0.0, ptr %2, align 8
  %.sroa.6.0..sroa_idx = getelementptr inbounds nuw i8, ptr %2, i64 8
  store ptr %11, ptr %.sroa.6.0..sroa_idx, align 8
  %.sroa.9.0..sroa_idx = getelementptr inbounds nuw i8, ptr %2, i64 16
  store i64 %15, ptr %.sroa.9.0..sroa_idx, align 8
  %.sroa.12.0..sroa_idx = getelementptr inbounds nuw i8, ptr %2, i64 24
  store i32 %10, ptr %.sroa.12.0..sroa_idx, align 8
  br label %24

24:                                               ; preds = %23, %22
  %25 = add i32 %4, 9
  ret i32 %25
}